; Function Attrs: mustprogress uwtable
define hidden void @_ZNK7datalog14check_relation10to_formulaER7obj_refI4expr11ast_managerE(ptr noundef nonnull readonly align 8 captures(none) dereferenceable(64) %0, ptr noundef nonnull align 8 captures(none) dereferenceable(16) %1) unnamed_addr #3 align 2 {
  %3 = getelementptr inbounds nuw i8, ptr %0, i64 48
  %4 = load ptr, ptr %1, align 8, !tbaa !35
  %5 = load ptr, ptr %3, align 8, !tbaa !35
  %.not.i = icmp eq ptr %4, %5
  br i1 %.not.i, label %_ZN7obj_refI4expr11ast_managerEaSERKS2_.exit, label %6

6:                                                ; preds = %2
  %.not.i.i = icmp eq ptr %4, null
  br i1 %.not.i.i, label %_ZN7obj_refI4expr11ast_managerE7dec_refEv.exit.i, label %7

7:                                                ; preds = %6
  %8 = getelementptr inbounds nuw i8, ptr %1, i64 8
  %9 = load ptr, ptr %8, align 8, !tbaa !36
  %10 = getelementptr inbounds nuw i8, ptr %4, i64 8
  %11 = load i32, ptr %10, align 4, !tbaa !37
  %12 = add i32 %11, -1
  store i32 %12, ptr %10, align 4, !tbaa !37
  %13 = icmp eq i32 %12, 0
  br i1 %13, label %14, label %_ZN7obj_refI4expr11ast_managerE7dec_refEv.exit.i

14:                                               ; preds = %7
  tail call void @_ZN11ast_manager11delete_nodeEP3ast(ptr noundef nonnull align 8 dereferenceable(976) %9, ptr noundef nonnull %4)
  %.pr.pre.i = load ptr, ptr %3, align 8, !tbaa !35
  br label %_ZN7obj_refI4expr11ast_managerE7dec_refEv.exit.i

_ZN7obj_refI4expr11ast_managerE7dec_refEv.exit.i: ; preds = %14, %7, %6
  %15 = phi ptr [ %5, %6 ], [ %.pr.pre.i, %14 ], [ %5, %7 ]
  store ptr %15, ptr %1, align 8, !tbaa !35
  %.not.i3.i = icmp eq ptr %15, null
  br i1 %.not.i3.i, label %_ZN7obj_refI4expr11ast_managerEaSERKS2_.exit, label %_ZN11ast_manager7inc_refEP3ast.exit.i.i

_ZN11ast_manager7inc_refEP3ast.exit.i.i:          ; preds = %_ZN7obj_refI4expr11ast_managerE7dec_refEv.exit.i
  %16 = getelementptr inbounds nuw i8, ptr %15, i64 8
  %17 = load i32, ptr %16, align 4, !tbaa !37
  %18 = add i32 %17, 1
  store i32 %18, ptr %16, align 4, !tbaa !37
  br label %_ZN7obj_refI4expr11ast_managerEaSERKS2_.exit

_ZN7obj_refI4expr11ast_managerEaSERKS2_.exit:     ; preds = %2, %_ZN7obj_refI4expr11ast_managerE7dec_refEv.exit.i, %_ZN11ast_manager7inc_refEP3ast.exit.i.i
  ret void
}